target datalayout = "e-m:e-p270:32:32-p271:32:32-p272:64:64-i64:64-i128:128-f80:128-n8:16:32:64-S128"
target triple = "x86_64-pc-linux-gnu"

%"class.cv::bioinspired::RetinaColor" = type <{ ptr, %"class.cv::bioinspired::BasicRetinaFilter", i32, i8, [3 x i8], float, [4 x i8], ptr, ptr, %"class.std::valarray.0", %"class.std::valarray", %"class.std::valarray", %"class.std::valarray", %"class.std::valarray", %"class.std::valarray", %"class.std::valarray", %"class.std::valarray", float, float, float, i8, [3 x i8] }>
%"class.cv::bioinspired::BasicRetinaFilter" = type { %"class.cv::bioinspired::TemplateBuffer", %"class.std::valarray", i32, i32, %"class.std::valarray", %"class.std::valarray", %"class.std::valarray", float, float, float, float, float, float, float, float }
%"class.cv::bioinspired::TemplateBuffer" = type { ptr, %"class.std::valarray", i64, i64, i64, i64, i64 }
%"class.std::valarray.0" = type { i64, ptr }
%"class.std::valarray" = type { i64, ptr }

; Function Attrs: mustprogress nounwind uwtable
define linkonce_odr hidden void @_ZN2cv11bioinspired14TemplateBufferIfE36normalizeGrayOutput_0_maxOutputValueEPfmf(ptr noundef %0, i64 noundef %1, float noundef %2) #8 comdat align 2 {
  %4 = alloca ptr, align 8
  %5 = alloca i64, align 8
  %6 = alloca float, align 4
  %7 = alloca float, align 4
  %8 = alloca float, align 4
  %9 = alloca ptr, align 8
  %10 = alloca i64, align 8
  %11 = alloca float, align 4
  %12 = alloca float, align 4
  %13 = alloca float, align 4
  %14 = alloca i64, align 8
  store ptr %0, ptr %4, align 8, !tbaa !39
  store i64 %1, ptr %5, align 8, !tbaa !33
  store float %2, ptr %6, align 4, !tbaa !30
  call void @llvm.lifetime.start.p0(i64 4, ptr %7) #3
  %15 = load ptr, ptr %4, align 8, !tbaa !39
  %16 = getelementptr inbounds float, ptr %15, i64 0
  %17 = load float, ptr %16, align 4, !tbaa !30
  store float %17, ptr %7, align 4, !tbaa !30
  call void @llvm.lifetime.start.p0(i64 4, ptr %8) #3
  %18 = load ptr, ptr %4, align 8, !tbaa !39
  %19 = getelementptr inbounds float, ptr %18, i64 0
  %20 = load float, ptr %19, align 4, !tbaa !30
  store float %20, ptr %8, align 4, !tbaa !30
  call void @llvm.lifetime.start.p0(i64 8, ptr %9) #3
  %21 = load ptr, ptr %4, align 8, !tbaa !39
  store ptr %21, ptr %9, align 8, !tbaa !39
  call void @llvm.lifetime.start.p0(i64 8, ptr %10) #3
  store i64 0, ptr %10, align 8, !tbaa !33
  br label %22

22:                                               ; preds = %44, %3
  %23 = load i64, ptr %10, align 8, !tbaa !33
  %24 = load i64, ptr %5, align 8, !tbaa !33
  %25 = icmp ult i64 %23, %24
  br i1 %25, label %27, label %26

26:                                               ; preds = %22
  call void @llvm.lifetime.end.p0(i64 8, ptr %10) #3
  br label %47

27:                                               ; preds = %22
  call void @llvm.lifetime.start.p0(i64 4, ptr %11) #3
  %28 = load ptr, ptr %9, align 8, !tbaa !39
  %29 = getelementptr inbounds nuw float, ptr %28, i32 1
  store ptr %29, ptr %9, align 8, !tbaa !39
  %30 = load float, ptr %28, align 4, !tbaa !30
  store float %30, ptr %11, align 4, !tbaa !30
  %31 = load float, ptr %7, align 4, !tbaa !30
  %32 = load float, ptr %11, align 4, !tbaa !30
  %33 = fcmp olt float %31, %32
  br i1 %33, label %34, label %36

34:                                               ; preds = %27
  %35 = load float, ptr %11, align 4, !tbaa !30
  store float %35, ptr %7, align 4, !tbaa !30
  br label %43

36:                                               ; preds = %27
  %37 = load float, ptr %8, align 4, !tbaa !30
  %38 = load float, ptr %11, align 4, !tbaa !30
  %39 = fcmp ogt float %37, %38
  br i1 %39, label %40, label %42

40:                                               ; preds = %36
  %41 = load float, ptr %11, align 4, !tbaa !30
  store float %41, ptr %8, align 4, !tbaa !30
  br label %42

42:                                               ; preds = %40, %36
  br label %43

43:                                               ; preds = %42, %34
  call void @llvm.lifetime.end.p0(i64 4, ptr %11) #3
  br label %44

44:                                               ; preds = %43
  %45 = load i64, ptr %10, align 8, !tbaa !33
  %46 = add i64 %45, 1
  store i64 %46, ptr %10, align 8, !tbaa !33
  br label %22, !llvm.loop !91

47:                                               ; preds = %26
  call void @llvm.lifetime.start.p0(i64 4, ptr %12) #3
  %48 = load float, ptr %6, align 4, !tbaa !30
  %49 = load float, ptr %7, align 4, !tbaa !30
  %50 = load float, ptr %8, align 4, !tbaa !30
  %51 = fsub float %49, %50
  %52 = fdiv float %48, %51
  store float %52, ptr %12, align 4, !tbaa !30
  call void @llvm.lifetime.start.p0(i64 4, ptr %13) #3
  %53 = load float, ptr %8, align 4, !tbaa !30
  %54 = fneg float %53
  %55 = load float, ptr %12, align 4, !tbaa !30
  %56 = fmul float %54, %55
  store float %56, ptr %13, align 4, !tbaa !30
  %57 = load ptr, ptr %4, align 8, !tbaa !39
  store ptr %57, ptr %9, align 8, !tbaa !39
  call void @llvm.lifetime.start.p0(i64 8, ptr %14) #3
  store i64 0, ptr %14, align 8, !tbaa !33
  br label %58

58:                                               ; preds = %70, %47
  %59 = load i64, ptr %14, align 8, !tbaa !33
  %60 = load i64, ptr %5, align 8, !tbaa !33
  %61 = icmp ult i64 %59, %60
  br i1 %61, label %63, label %62

62:                                               ; preds = %58
  call void @llvm.lifetime.end.p0(i64 8, ptr %14) #3
  br label %75

63:                                               ; preds = %58
  %64 = load ptr, ptr %9, align 8, !tbaa !39
  %65 = load float, ptr %64, align 4, !tbaa !30
  %66 = load float, ptr %12, align 4, !tbaa !30
  %67 = load float, ptr %13, align 4, !tbaa !30
  %68 = call float @llvm.fmuladd.f32(float %65, float %66, float %67)
  %69 = load ptr, ptr %9, align 8, !tbaa !39
  store float %68, ptr %69, align 4, !tbaa !30
  br label %70

70:                                               ; preds = %63
  %71 = load i64, ptr %14, align 8, !tbaa !33
  %72 = add i64 %71, 1
  store i64 %72, ptr %14, align 8, !tbaa !33
  %73 = load ptr, ptr %9, align 8, !tbaa !39
  %74 = getelementptr inbounds nuw float, ptr %73, i32 1
  store ptr %74, ptr %9, align 8, !tbaa !39
  br label %58, !llvm.loop !92

75:                                               ; preds = %62
  call void @llvm.lifetime.end.p0(i64 4, ptr %13) #3
  call void @llvm.lifetime.end.p0(i64 4, ptr %12) #3
  call void @llvm.lifetime.end.p0(i64 8, ptr %9) #3
  call void @llvm.lifetime.end.p0(i64 4, ptr %8) #3
  call void @llvm.lifetime.end.p0(i64 4, ptr %7) #3
  ret void
}

; Function Attrs: inlinehint mustprogress nounwind uwtable
define linkonce_odr hidden noundef i32 @_ZN2cv11bioinspired14TemplateBufferIfE11getNBpixelsEv(ptr noundef nonnull align 8 dereferenceable(64) %0) #7 comdat align 2 {
  %2 = alloca ptr, align 8
  store ptr %0, ptr %2, align 8, !tbaa !56
  %3 = load ptr, ptr %2, align 8
  %4 = getelementptr inbounds nuw %"class.cv::bioinspired::TemplateBuffer", ptr %3, i32 0, i32 5
  %5 = load i64, ptr %4, align 8, !tbaa !58
  %6 = trunc i64 %5 to i32
  ret i32 %6
}

; Function Attrs: inlinehint mustprogress nounwind uwtable
define linkonce_odr hidden noundef nonnull align 4 dereferenceable(4) ptr @_ZNSt8valarrayIfEixEm(ptr noundef nonnull align 8 dereferenceable(16) %0, i64 noundef %1) #7 comdat align 2 {
  %3 = alloca ptr, align 8
  %4 = alloca i64, align 8
  store ptr %0, ptr %3, align 8, !tbaa !36
  store i64 %1, ptr %4, align 8, !tbaa !33
  %5 = load ptr, ptr %3, align 8
  %6 = getelementptr inbounds nuw %"class.std::valarray", ptr %5, i32 0, i32 1
  %7 = load ptr, ptr %6, align 8, !tbaa !38
  %8 = load i64, ptr %4, align 8, !tbaa !33
  %9 = getelementptr inbounds nuw float, ptr %7, i64 %8
  ret ptr %9
}

; Function Attrs: mustprogress uwtable
define hidden void @_ZN2cv11bioinspired11RetinaColor35normalizeRGBOutput_0_maxOutputValueEf(ptr noundef nonnull align 8 dereferenceable(349) %0, float noundef %1) #4 align 2 {
  %3 = alloca ptr, align 8
  %4 = alloca float, align 4
  store ptr %0, ptr %3, align 8, !tbaa !3
  store float %1, ptr %4, align 4, !tbaa !30
  %5 = load ptr, ptr %3, align 8
  %6 = getelementptr inbounds nuw %"class.cv::bioinspired::RetinaColor", ptr %5, i32 0, i32 13
  %7 = call noundef nonnull align 4 dereferenceable(4) ptr @_ZNSt8valarrayIfEixEm(ptr noundef nonnull align 8 dereferenceable(16) %6, i64 noundef 0) #3
  %8 = getelementptr inbounds i8, ptr %5, i64 8
  %9 = getelementptr inbounds nuw %"class.cv::bioinspired::BasicRetinaFilter", ptr %8, i32 0, i32 0
  %10 = call noundef i32 @_ZN2cv11bioinspired14TemplateBufferIfE11getNBpixelsEv(ptr noundef nonnull align 8 dereferenceable(64) %9)
  %11 = mul i32 3, %10
  %12 = zext i32 %11 to i64
  %13 = load float, ptr %4, align 4, !tbaa !30
  call void @_ZN2cv11bioinspired14TemplateBufferIfE36normalizeGrayOutput_0_maxOutputValueEPfmf(ptr noundef %7, i64 noundef %12, float noundef %13)
  %14 = getelementptr inbounds nuw %"class.cv::bioinspired::RetinaColor", ptr %5, i32 0, i32 7
  %15 = load ptr, ptr %14, align 8, !tbaa !12
  %16 = getelementptr inbounds i8, ptr %15, i64 8
  %17 = call noundef nonnull align 4 dereferenceable(4) ptr @_ZNSt8valarrayIfEixEm(ptr noundef nonnull align 8 dereferenceable(16) %16, i64 noundef 0) #3
  %18 = getelementptr inbounds i8, ptr %5, i64 8
  %19 = getelementptr inbounds nuw %"class.cv::bioinspired::BasicRetinaFilter", ptr %18, i32 0, i32 0
  %20 = call noundef i32 @_ZN2cv11bioinspired14TemplateBufferIfE11getNBpixelsEv(ptr noundef nonnull align 8 dereferenceable(64) %19)
  %21 = zext i32 %20 to i64
  %22 = load float, ptr %4, align 4, !tbaa !30
  call void @_ZN2cv11bioinspired14TemplateBufferIfE36normalizeGrayOutput_0_maxOutputValueEPfmf(ptr noundef %17, i64 noundef %21, float noundef %22)
  ret void
}