; Function Attrs: mustprogress nofree norecurse nosync nounwind memory(readwrite, inaccessiblemem: none) uwtable
define hidden void @_ZN2cv11bioinspired11RetinaColor35normalizeRGBOutput_0_maxOutputValueEf(ptr noundef nonnull readonly align 8 captures(none) dereferenceable(349) %0, float noundef %1) local_unnamed_addr #9 align 2 {
  %3 = getelementptr inbounds nuw i8, ptr %0, i64 280
  %4 = load ptr, ptr %3, align 8, !tbaa !16
  %5 = getelementptr inbounds nuw i8, ptr %0, i64 56
  %6 = load i64, ptr %5, align 8, !tbaa !61
  %7 = mul i64 %6, 3
  %8 = and i64 %7, 4294967295
  %.not.i = icmp eq i64 %8, 0
  br i1 %.not.i, label %_ZN2cv11bioinspired14TemplateBufferIfE36normalizeGrayOutput_0_maxOutputValueEPfmf.exit, label %.lr.ph.i.preheader

.lr.ph.i.preheader:                               ; preds = %2
  %9 = load float, ptr %4, align 4, !tbaa !31
  br label %.lr.ph.i

.lr.ph43.preheader.i:                             ; preds = %20
  %10 = fsub float %.1.i, %.128.i
  %11 = fdiv float %1, %10
  %12 = fneg float %.128.i
  %13 = fmul float %11, %12
  br label %.lr.ph43.i

.lr.ph.i:                                         ; preds = %.lr.ph.i.preheader, %20
  %.02638.i = phi float [ %.1.i, %20 ], [ %9, %.lr.ph.i.preheader ]
  %.02737.i = phi float [ %.128.i, %20 ], [ %9, %.lr.ph.i.preheader ]
  %.02936.i = phi ptr [ %14, %20 ], [ %4, %.lr.ph.i.preheader ]
  %.03135.i = phi i64 [ %21, %20 ], [ 0, %.lr.ph.i.preheader ]
  %14 = getelementptr inbounds nuw i8, ptr %.02936.i, i64 4
  %15 = load float, ptr %.02936.i, align 4, !tbaa !31
  %16 = fcmp olt float %.02638.i, %15
  br i1 %16, label %20, label %17

17:                                               ; preds = %.lr.ph.i
  %18 = fcmp ogt float %.02737.i, %15
  br i1 %18, label %19, label %20

19:                                               ; preds = %17
  br label %20

20:                                               ; preds = %19, %17, %.lr.ph.i
  %.128.i = phi float [ %15, %19 ], [ %.02737.i, %17 ], [ %.02737.i, %.lr.ph.i ]
  %.1.i = phi float [ %.02638.i, %19 ], [ %.02638.i, %17 ], [ %15, %.lr.ph.i ]
  %21 = add nuw nsw i64 %.03135.i, 1
  %exitcond.not.i = icmp eq i64 %21, %8
  br i1 %exitcond.not.i, label %.lr.ph43.preheader.i, label %.lr.ph.i, !llvm.loop !193

.lr.ph43.i:                                       ; preds = %.lr.ph43.i, %.lr.ph43.preheader.i
  %.041.i = phi i64 [ %24, %.lr.ph43.i ], [ 0, %.lr.ph43.preheader.i ]
  %.13040.i = phi ptr [ %25, %.lr.ph43.i ], [ %4, %.lr.ph43.preheader.i ]
  %22 = load float, ptr %.13040.i, align 4, !tbaa !31
  %23 = tail call float @llvm.fmuladd.f32(float %22, float %11, float %13)
  store float %23, ptr %.13040.i, align 4, !tbaa !31
  %24 = add nuw nsw i64 %.041.i, 1
  %25 = getelementptr inbounds nuw i8, ptr %.13040.i, i64 4
  %exitcond46.not.i = icmp eq i64 %24, %8
  br i1 %exitcond46.not.i, label %_ZN2cv11bioinspired14TemplateBufferIfE36normalizeGrayOutput_0_maxOutputValueEPfmf.exit, label %.lr.ph43.i, !llvm.loop !194

_ZN2cv11bioinspired14TemplateBufferIfE36normalizeGrayOutput_0_maxOutputValueEPfmf.exit: ; preds = %.lr.ph43.i, %2
  %26 = getelementptr inbounds nuw i8, ptr %0, i64 192
  %27 = load ptr, ptr %26, align 8, !tbaa !17
  %28 = getelementptr inbounds nuw i8, ptr %27, i64 16
  %29 = load ptr, ptr %28, align 8, !tbaa !16
  %30 = and i64 %6, 4294967295
  %.not.i3 = icmp eq i64 %30, 0
  br i1 %.not.i3, label %_ZN2cv11bioinspired14TemplateBufferIfE36normalizeGrayOutput_0_maxOutputValueEPfmf.exit17, label %.lr.ph.i4.preheader

.lr.ph.i4.preheader:                              ; preds = %_ZN2cv11bioinspired14TemplateBufferIfE36normalizeGrayOutput_0_maxOutputValueEPfmf.exit
  %31 = load float, ptr %29, align 4, !tbaa !31
  br label %.lr.ph.i4

.lr.ph43.preheader.i12:                           ; preds = %42
  %32 = fsub float %.1.i10, %.128.i9
  %33 = fdiv float %1, %32
  %34 = fneg float %.128.i9
  %35 = fmul float %33, %34
  br label %.lr.ph43.i13

.lr.ph.i4:                                        ; preds = %.lr.ph.i4.preheader, %42
  %.02638.i5 = phi float [ %.1.i10, %42 ], [ %31, %.lr.ph.i4.preheader ]
  %.02737.i6 = phi float [ %.128.i9, %42 ], [ %31, %.lr.ph.i4.preheader ]
  %.02936.i7 = phi ptr [ %36, %42 ], [ %29, %.lr.ph.i4.preheader ]
  %.03135.i8 = phi i64 [ %43, %42 ], [ 0, %.lr.ph.i4.preheader ]
  %36 = getelementptr inbounds nuw i8, ptr %.02936.i7, i64 4
  %37 = load float, ptr %.02936.i7, align 4, !tbaa !31
  %38 = fcmp olt float %.02638.i5, %37
  br i1 %38, label %42, label %39

39:                                               ; preds = %.lr.ph.i4
  %40 = fcmp ogt float %.02737.i6, %37
  br i1 %40, label %41, label %42

41:                                               ; preds = %39
  br label %42

42:                                               ; preds = %41, %39, %.lr.ph.i4
  %.128.i9 = phi float [ %37, %41 ], [ %.02737.i6, %39 ], [ %.02737.i6, %.lr.ph.i4 ]
  %.1.i10 = phi float [ %.02638.i5, %41 ], [ %.02638.i5, %39 ], [ %37, %.lr.ph.i4 ]
  %43 = add nuw nsw i64 %.03135.i8, 1
  %exitcond.not.i11 = icmp eq i64 %43, %30
  br i1 %exitcond.not.i11, label %.lr.ph43.preheader.i12, label %.lr.ph.i4, !llvm.loop !193

.lr.ph43.i13:                                     ; preds = %.lr.ph43.i13, %.lr.ph43.preheader.i12
  %.041.i14 = phi i64 [ %46, %.lr.ph43.i13 ], [ 0, %.lr.ph43.preheader.i12 ]
  %.13040.i15 = phi ptr [ %47, %.lr.ph43.i13 ], [ %29, %.lr.ph43.preheader.i12 ]
  %44 = load float, ptr %.13040.i15, align 4, !tbaa !31
  %45 = tail call float @llvm.fmuladd.f32(float %44, float %33, float %35)
  store float %45, ptr %.13040.i15, align 4, !tbaa !31
  %46 = add nuw nsw i64 %.041.i14, 1
  %47 = getelementptr inbounds nuw i8, ptr %.13040.i15, i64 4
  %exitcond46.not.i16 = icmp eq i64 %46, %30
  br i1 %exitcond46.not.i16, label %_ZN2cv11bioinspired14TemplateBufferIfE36normalizeGrayOutput_0_maxOutputValueEPfmf.exit17, label %.lr.ph43.i13, !llvm.loop !194

_ZN2cv11bioinspired14TemplateBufferIfE36normalizeGrayOutput_0_maxOutputValueEPfmf.exit17: ; preds = %.lr.ph43.i13, %_ZN2cv11bioinspired14TemplateBufferIfE36normalizeGrayOutput_0_maxOutputValueEPfmf.exit
  ret void
}